(lp1
(lp2
I414
aI0
aI0
aI0
aa(lp3
I537
aI0
aI0
aI0
aa(lp4
I415
aI0
aI0
aI0
aa(lp5
I486
aI0
aI0
aI0
aa(lp6
I445
aI0
aI0
aI0
aa(lp7
I504
aI0
aI0
aI0
aa(lp8
I525
aI0
aI0
aI0
aa(lp9
I497
aI0
aI0
aI0
aa(lp10
I347
aI0
aI0
aI0
aa(lp11
I408
aI0
aI0
aI0
aa.